target datalayout = "e-m:e-p270:32:32-p271:32:32-p272:64:64-i64:64-i128:128-f80:128-n8:16:32:64-S128"
target triple = "x86_64-pc-linux-gnu"

%struct.AVSliceThread = type { ptr, i32, i32, i32, i32, i32, %union.pthread_mutex_t, %union.pthread_cond_t, i32, i32, ptr, ptr, ptr }
%union.pthread_mutex_t = type { %struct.__pthread_mutex_s }
%struct.__pthread_mutex_s = type { i32, i32, i32, i32, i32, i16, i16, %struct.__pthread_internal_list }
%struct.__pthread_internal_list = type { ptr, ptr }
%union.pthread_cond_t = type { %struct.__pthread_cond_s }
%struct.__pthread_cond_s = type { %union.__atomic_wide_counter, %union.__atomic_wide_counter, [2 x i32], [2 x i32], i32, i32, [2 x i32] }
%union.__atomic_wide_counter = type { i64 }
%struct.WorkerContext = type { ptr, %union.pthread_mutex_t, %union.pthread_cond_t, i64, i32 }

; Function Attrs: cold nounwind optsize uwtable
define void @avpriv_slicethread_free(ptr noundef %0) #0 {
  %2 = alloca ptr, align 8
  %3 = alloca ptr, align 8
  %4 = alloca i32, align 4
  %5 = alloca i32, align 4
  %6 = alloca i32, align 4
  %7 = alloca ptr, align 8
  %8 = alloca ptr, align 8
  store ptr %0, ptr %2, align 8, !tbaa !4
  call void @llvm.lifetime.start.p0(i64 8, ptr %3) #6
  %9 = load ptr, ptr %2, align 8, !tbaa !4
  %10 = load ptr, ptr %9, align 8, !tbaa !13
  store ptr %10, ptr %3, align 8, !tbaa !13
  call void @llvm.lifetime.start.p0(i64 4, ptr %4) #6
  call void @llvm.lifetime.start.p0(i64 4, ptr %5) #6
  %11 = load ptr, ptr %3, align 8, !tbaa !13
  %12 = icmp ne ptr %11, null
  br i1 %12, label %14, label %13

13:                                               ; preds = %1
  store i32 1, ptr %6, align 4
  br label %88

14:                                               ; preds = %1
  %15 = load ptr, ptr %3, align 8, !tbaa !13
  %16 = getelementptr inbounds nuw %struct.AVSliceThread, ptr %15, i32 0, i32 1
  %17 = load i32, ptr %16, align 8, !tbaa !21
  store i32 %17, ptr %4, align 4, !tbaa !11
  %18 = load ptr, ptr %3, align 8, !tbaa !13
  %19 = getelementptr inbounds nuw %struct.AVSliceThread, ptr %18, i32 0, i32 12
  %20 = load ptr, ptr %19, align 8, !tbaa !20
  %21 = icmp ne ptr %20, null
  br i1 %21, label %25, label %22

22:                                               ; preds = %14
  %23 = load i32, ptr %4, align 4, !tbaa !11
  %24 = add nsw i32 %23, -1
  store i32 %24, ptr %4, align 4, !tbaa !11
  br label %25

25:                                               ; preds = %22, %14
  %26 = load ptr, ptr %3, align 8, !tbaa !13
  %27 = getelementptr inbounds nuw %struct.AVSliceThread, ptr %26, i32 0, i32 9
  store i32 1, ptr %27, align 4, !tbaa !24
  store i32 0, ptr %5, align 4, !tbaa !11
  br label %28

28:                                               ; preds = %50, %25
  %29 = load i32, ptr %5, align 4, !tbaa !11
  %30 = load i32, ptr %4, align 4, !tbaa !11
  %31 = icmp slt i32 %29, %30
  br i1 %31, label %32, label %53

32:                                               ; preds = %28
  call void @llvm.lifetime.start.p0(i64 8, ptr %7) #6
  %33 = load ptr, ptr %3, align 8, !tbaa !13
  %34 = getelementptr inbounds nuw %struct.AVSliceThread, ptr %33, i32 0, i32 0
  %35 = load ptr, ptr %34, align 8, !tbaa !15
  %36 = load i32, ptr %5, align 4, !tbaa !11
  %37 = sext i32 %36 to i64
  %38 = getelementptr inbounds %struct.WorkerContext, ptr %35, i64 %37
  store ptr %38, ptr %7, align 8, !tbaa !27
  %39 = load ptr, ptr %7, align 8, !tbaa !27
  %40 = getelementptr inbounds nuw %struct.WorkerContext, ptr %39, i32 0, i32 1
  %41 = call i32 @pthread_mutex_lock(ptr noundef %40) #6
  %42 = load ptr, ptr %7, align 8, !tbaa !27
  %43 = getelementptr inbounds nuw %struct.WorkerContext, ptr %42, i32 0, i32 4
  store i32 0, ptr %43, align 8, !tbaa !31
  %44 = load ptr, ptr %7, align 8, !tbaa !27
  %45 = getelementptr inbounds nuw %struct.WorkerContext, ptr %44, i32 0, i32 2
  %46 = call i32 @pthread_cond_signal(ptr noundef %45) #6
  %47 = load ptr, ptr %7, align 8, !tbaa !27
  %48 = getelementptr inbounds nuw %struct.WorkerContext, ptr %47, i32 0, i32 1
  %49 = call i32 @pthread_mutex_unlock(ptr noundef %48) #6
  call void @llvm.lifetime.end.p0(i64 8, ptr %7) #6
  br label %50

50:                                               ; preds = %32
  %51 = load i32, ptr %5, align 4, !tbaa !11
  %52 = add nsw i32 %51, 1
  store i32 %52, ptr %5, align 4, !tbaa !11
  br label %28, !llvm.loop !35

53:                                               ; preds = %28
  store i32 0, ptr %5, align 4, !tbaa !11
  br label %54

54:                                               ; preds = %75, %53
  %55 = load i32, ptr %5, align 4, !tbaa !11
  %56 = load i32, ptr %4, align 4, !tbaa !11
  %57 = icmp slt i32 %55, %56
  br i1 %57, label %58, label %78

58:                                               ; preds = %54
  call void @llvm.lifetime.start.p0(i64 8, ptr %8) #6
  %59 = load ptr, ptr %3, align 8, !tbaa !13
  %60 = getelementptr inbounds nuw %struct.AVSliceThread, ptr %59, i32 0, i32 0
  %61 = load ptr, ptr %60, align 8, !tbaa !15
  %62 = load i32, ptr %5, align 4, !tbaa !11
  %63 = sext i32 %62 to i64
  %64 = getelementptr inbounds %struct.WorkerContext, ptr %61, i64 %63
  store ptr %64, ptr %8, align 8, !tbaa !27
  %65 = load ptr, ptr %8, align 8, !tbaa !27
  %66 = getelementptr inbounds nuw %struct.WorkerContext, ptr %65, i32 0, i32 3
  %67 = load i64, ptr %66, align 8, !tbaa !36
  %68 = call i32 @pthread_join(i64 noundef %67, ptr noundef null)
  %69 = load ptr, ptr %8, align 8, !tbaa !27
  %70 = getelementptr inbounds nuw %struct.WorkerContext, ptr %69, i32 0, i32 2
  %71 = call i32 @pthread_cond_destroy(ptr noundef %70) #6
  %72 = load ptr, ptr %8, align 8, !tbaa !27
  %73 = getelementptr inbounds nuw %struct.WorkerContext, ptr %72, i32 0, i32 1
  %74 = call i32 @pthread_mutex_destroy(ptr noundef %73) #6
  call void @llvm.lifetime.end.p0(i64 8, ptr %8) #6
  br label %75

75:                                               ; preds = %58
  %76 = load i32, ptr %5, align 4, !tbaa !11
  %77 = add nsw i32 %76, 1
  store i32 %77, ptr %5, align 4, !tbaa !11
  br label %54, !llvm.loop !37

78:                                               ; preds = %54
  %79 = load ptr, ptr %3, align 8, !tbaa !13
  %80 = getelementptr inbounds nuw %struct.AVSliceThread, ptr %79, i32 0, i32 7
  %81 = call i32 @pthread_cond_destroy(ptr noundef %80) #6
  %82 = load ptr, ptr %3, align 8, !tbaa !13
  %83 = getelementptr inbounds nuw %struct.AVSliceThread, ptr %82, i32 0, i32 6
  %84 = call i32 @pthread_mutex_destroy(ptr noundef %83) #6
  %85 = load ptr, ptr %3, align 8, !tbaa !13
  %86 = getelementptr inbounds nuw %struct.AVSliceThread, ptr %85, i32 0, i32 0
  call void @av_freep(ptr noundef %86)
  %87 = load ptr, ptr %2, align 8, !tbaa !4
  call void @av_freep(ptr noundef %87)
  store i32 0, ptr %6, align 4
  br label %88

88:                                               ; preds = %78, %13
  call void @llvm.lifetime.end.p0(i64 4, ptr %5) #6
  call void @llvm.lifetime.end.p0(i64 4, ptr %4) #6
  call void @llvm.lifetime.end.p0(i64 8, ptr %3) #6
  %89 = load i32, ptr %6, align 4
  switch i32 %89, label %91 [
    i32 0, label %90
    i32 1, label %90
  ]

90:                                               ; preds = %88, %88
  ret void

91:                                               ; preds = %88
  unreachable
}