; Function Attrs: cold nounwind optsize uwtable
define void @avpriv_slicethread_free(ptr noundef %0) local_unnamed_addr #0 {
  %2 = load ptr, ptr %0, align 8, !tbaa !4
  %.not = icmp eq ptr %2, null
  br i1 %.not, label %32, label %3

3:                                                ; preds = %1
  %4 = getelementptr inbounds nuw i8, ptr %2, i64 8
  %5 = load i32, ptr %4, align 8, !tbaa !16
  %6 = getelementptr inbounds nuw i8, ptr %2, i64 144
  %7 = load ptr, ptr %6, align 8, !tbaa !15
  %.not28 = icmp eq ptr %7, null
  %8 = sext i1 %.not28 to i32
  %spec.select = add nsw i32 %5, %8
  %9 = getelementptr inbounds nuw i8, ptr %2, i64 124
  store i32 1, ptr %9, align 4, !tbaa !17
  %10 = icmp sgt i32 %spec.select, 0
  br i1 %10, label %.lr.ph.preheader, label %._crit_edge

.lr.ph.preheader:                                 ; preds = %3
  %wide.trip.count = zext nneg i32 %spec.select to i64
  br label %.lr.ph

.lr.ph31.preheader:                               ; preds = %.lr.ph
  %wide.trip.count36 = zext nneg i32 %spec.select to i64
  br label %.lr.ph31

.lr.ph:                                           ; preds = %.lr.ph.preheader, %.lr.ph
  %indvars.iv = phi i64 [ 0, %.lr.ph.preheader ], [ %indvars.iv.next, %.lr.ph ]
  %11 = load ptr, ptr %2, align 8, !tbaa !9
  %12 = getelementptr inbounds nuw %struct.WorkerContext, ptr %11, i64 %indvars.iv
  %13 = getelementptr inbounds nuw i8, ptr %12, i64 8
  %14 = tail call i32 @pthread_mutex_lock(ptr noundef nonnull %13) #7
  %15 = getelementptr inbounds nuw i8, ptr %12, i64 104
  store i32 0, ptr %15, align 8, !tbaa !22
  %16 = getelementptr inbounds nuw i8, ptr %12, i64 48
  %17 = tail call i32 @pthread_cond_signal(ptr noundef nonnull %16) #7
  %18 = tail call i32 @pthread_mutex_unlock(ptr noundef nonnull %13) #7
  %indvars.iv.next = add nuw nsw i64 %indvars.iv, 1
  %exitcond.not = icmp eq i64 %indvars.iv.next, %wide.trip.count
  br i1 %exitcond.not, label %.lr.ph31.preheader, label %.lr.ph, !llvm.loop !26

.lr.ph31:                                         ; preds = %.lr.ph31.preheader, %.lr.ph31
  %indvars.iv33 = phi i64 [ 0, %.lr.ph31.preheader ], [ %indvars.iv.next34, %.lr.ph31 ]
  %19 = load ptr, ptr %2, align 8, !tbaa !9
  %20 = getelementptr inbounds nuw %struct.WorkerContext, ptr %19, i64 %indvars.iv33
  %21 = getelementptr inbounds nuw i8, ptr %20, i64 96
  %22 = load i64, ptr %21, align 8, !tbaa !27
  %23 = tail call i32 @pthread_join(i64 noundef %22, ptr noundef null) #7
  %24 = getelementptr inbounds nuw i8, ptr %20, i64 48
  %25 = tail call i32 @pthread_cond_destroy(ptr noundef nonnull %24) #7
  %26 = getelementptr inbounds nuw i8, ptr %20, i64 8
  %27 = tail call i32 @pthread_mutex_destroy(ptr noundef nonnull %26) #7
  %indvars.iv.next34 = add nuw nsw i64 %indvars.iv33, 1
  %exitcond37.not = icmp eq i64 %indvars.iv.next34, %wide.trip.count36
  br i1 %exitcond37.not, label %._crit_edge, label %.lr.ph31, !llvm.loop !28

._crit_edge:                                      ; preds = %.lr.ph31, %3
  %28 = getelementptr inbounds nuw i8, ptr %2, i64 72
  %29 = tail call i32 @pthread_cond_destroy(ptr noundef nonnull %28) #7
  %30 = getelementptr inbounds nuw i8, ptr %2, i64 32
  %31 = tail call i32 @pthread_mutex_destroy(ptr noundef nonnull %30) #7
  tail call void @av_freep(ptr noundef nonnull %2) #7
  tail call void @av_freep(ptr noundef nonnull %0) #7
  br label %32

32:                                               ; preds = %1, %._crit_edge
  ret void
}